; Function Attrs: nounwind uwtable
define dso_local void @deferredAfterErrorReply(ptr noundef captures(none) %0, ptr noundef %1) local_unnamed_addr #0 {
  %3 = alloca %struct.listIter, align 8
  call void @llvm.lifetime.start.p0(i64 16, ptr nonnull %3) #26
  call void @listRewind(ptr noundef %1, ptr noundef nonnull %3) #26
  %4 = call ptr @listNext(ptr noundef nonnull %3) #26
  %.not5 = icmp eq ptr %4, null
  br i1 %.not5, label %._crit_edge, label %.lr.ph

.lr.ph:                                           ; preds = %2, %sdslen.exit
  %5 = phi ptr [ %30, %sdslen.exit ], [ %4, %2 ]
  %6 = getelementptr inbounds nuw i8, ptr %5, i64 16
  %7 = load ptr, ptr %6, align 8, !tbaa !123
  %8 = getelementptr inbounds i8, ptr %7, i64 -1
  %9 = load i8, ptr %8, align 1, !tbaa !12
  %10 = zext i8 %9 to i32
  %11 = and i32 %10, 7
  switch i32 %11, label %sdslen.exit [
    i32 0, label %12
    i32 1, label %15
    i32 2, label %19
    i32 3, label %23
    i32 4, label %27
  ]

12:                                               ; preds = %.lr.ph
  %13 = lshr i32 %10, 3
  %14 = zext nneg i32 %13 to i64
  br label %sdslen.exit

15:                                               ; preds = %.lr.ph
  %16 = getelementptr inbounds i8, ptr %7, i64 -3
  %17 = load i8, ptr %16, align 1, !tbaa !12
  %18 = zext i8 %17 to i64
  br label %sdslen.exit

19:                                               ; preds = %.lr.ph
  %20 = getelementptr inbounds i8, ptr %7, i64 -5
  %21 = load i16, ptr %20, align 1, !tbaa !13
  %22 = zext i16 %21 to i64
  br label %sdslen.exit

23:                                               ; preds = %.lr.ph
  %24 = getelementptr inbounds i8, ptr %7, i64 -9
  %25 = load i32, ptr %24, align 1, !tbaa !15
  %26 = zext i32 %25 to i64
  br label %sdslen.exit

27:                                               ; preds = %.lr.ph
  %28 = getelementptr inbounds i8, ptr %7, i64 -17
  %29 = load i64, ptr %28, align 1, !tbaa !16
  br label %sdslen.exit

sdslen.exit:                                      ; preds = %.lr.ph, %12, %15, %19, %23, %27
  %.0.i = phi i64 [ %29, %27 ], [ %26, %23 ], [ %22, %19 ], [ %18, %15 ], [ %14, %12 ], [ 0, %.lr.ph ]
  call void @afterErrorReply(ptr noundef %0, ptr noundef nonnull %7, i64 noundef %.0.i, i32 noundef 0)
  %30 = call ptr @listNext(ptr noundef nonnull %3) #26
  %.not = icmp eq ptr %30, null
  br i1 %.not, label %._crit_edge, label %.lr.ph, !llvm.loop !157

._crit_edge:                                      ; preds = %sdslen.exit, %2
  call void @llvm.lifetime.end.p0(i64 16, ptr nonnull %3) #26
  ret void
}